target datalayout = "e-m:e-p270:32:32-p271:32:32-p272:64:64-i64:64-i128:128-f80:128-n8:16:32:64-S128"
target triple = "x86_64-pc-linux-gnu"

%struct._address = type { i32, i32, ptr, ptr }
%struct.sna_fid_type_4_addr = type { i32, i16 }

; Function Attrs: alwaysinline nounwind
define internal ptr @memcpy.inline(ptr noalias %0, ptr noalias %1, i64 %2) #8 {
  %4 = alloca ptr, align 8
  %5 = alloca ptr, align 8
  %6 = alloca i64, align 8
  store ptr %0, ptr %4, align 8
  store ptr %1, ptr %5, align 8
  store i64 %2, ptr %6, align 8
  %7 = load ptr, ptr %4, align 8
  %8 = load ptr, ptr %5, align 8
  %9 = load i64, ptr %6, align 8
  %10 = load ptr, ptr %4, align 8
  %11 = call i64 @llvm.objectsize.i64.p0(ptr %10, i1 false, i1 true, i1 true)
  %12 = call ptr @__memcpy_chk(ptr noundef %7, ptr noundef %8, i64 noundef %9, i64 noundef %11) #12
  ret ptr %12
}

; Function Attrs: inlinehint nounwind null_pointer_is_valid sspstrong uwtable
define internal zeroext i16 @pntoh16(ptr noundef %0) #5 {
  %2 = alloca ptr, align 8
  store ptr %0, ptr %2, align 8
  %3 = load ptr, ptr %2, align 8
  %4 = getelementptr i8, ptr %3, i64 0
  %5 = load i8, ptr %4, align 1
  %6 = zext i8 %5 to i16
  %7 = zext i16 %6 to i32
  %8 = shl i32 %7, 8
  %9 = load ptr, ptr %2, align 8
  %10 = getelementptr i8, ptr %9, i64 1
  %11 = load i8, ptr %10, align 1
  %12 = zext i8 %11 to i16
  %13 = zext i16 %12 to i32
  %14 = shl i32 %13, 0
  %15 = or i32 %8, %14
  %16 = trunc i32 %15 to i16
  ret i16 %16
}

; Function Attrs: null_pointer_is_valid sspstrong uwtable
define internal i32 @sna_fid_to_str_buf(ptr noundef %0, ptr noundef %1, i32 noundef %2) #0 {
  %4 = alloca i32, align 4
  %5 = alloca ptr, align 8
  %6 = alloca ptr, align 8
  %7 = alloca i32, align 4
  %8 = alloca ptr, align 8
  %9 = alloca %struct.sna_fid_type_4_addr, align 4
  %10 = alloca ptr, align 8
  %11 = alloca i32, align 4
  store ptr %0, ptr %5, align 8
  store ptr %1, ptr %6, align 8
  store i32 %2, ptr %7, align 4
  call void @llvm.lifetime.start.p0(i64 8, ptr %8) #12
  call void @llvm.lifetime.start.p0(i64 8, ptr %9) #12
  call void @llvm.lifetime.start.p0(i64 8, ptr %10) #12
  %12 = load ptr, ptr %6, align 8
  store ptr %12, ptr %10, align 8
  %13 = load ptr, ptr %5, align 8
  %14 = getelementptr inbounds nuw %struct._address, ptr %13, i32 0, i32 1
  %15 = load i32, ptr %14, align 4
  switch i32 %15, label %56 [
    i32 1, label %16
    i32 2, label %28
    i32 6, label %39
  ]

16:                                               ; preds = %3
  %17 = load ptr, ptr %5, align 8
  %18 = getelementptr inbounds nuw %struct._address, ptr %17, i32 0, i32 2
  %19 = load ptr, ptr %18, align 8
  store ptr %19, ptr %8, align 8
  %20 = load ptr, ptr %6, align 8
  %21 = load ptr, ptr %8, align 8
  %22 = getelementptr i8, ptr %21, i64 0
  %23 = load i8, ptr %22, align 1
  %24 = zext i8 %23 to i16
  %25 = call ptr @word_to_hex(ptr noundef %20, i16 noundef zeroext %24)
  %26 = load ptr, ptr %6, align 8
  %27 = getelementptr i8, ptr %26, i64 4
  store i8 0, ptr %27, align 1
  br label %59

28:                                               ; preds = %3
  %29 = load ptr, ptr %5, align 8
  %30 = getelementptr inbounds nuw %struct._address, ptr %29, i32 0, i32 2
  %31 = load ptr, ptr %30, align 8
  store ptr %31, ptr %8, align 8
  %32 = load ptr, ptr %6, align 8
  %33 = load ptr, ptr %8, align 8
  %34 = getelementptr i8, ptr %33, i64 0
  %35 = call zeroext i16 @pntoh16(ptr noundef %34)
  %36 = call ptr @word_to_hex(ptr noundef %32, i16 noundef zeroext %35)
  %37 = load ptr, ptr %6, align 8
  %38 = getelementptr i8, ptr %37, i64 4
  store i8 0, ptr %38, align 1
  br label %59

39:                                               ; preds = %3
  %40 = load ptr, ptr %5, align 8
  %41 = getelementptr inbounds nuw %struct._address, ptr %40, i32 0, i32 2
  %42 = load ptr, ptr %41, align 8
  %43 = call ptr @memcpy.inline(ptr noundef %9, ptr noundef %42, i64 noundef 6) #12
  %44 = load ptr, ptr %10, align 8
  %45 = getelementptr inbounds nuw %struct.sna_fid_type_4_addr, ptr %9, i32 0, i32 0
  %46 = load i32, ptr %45, align 4
  %47 = call ptr @dword_to_hex(ptr noundef %44, i32 noundef %46)
  store ptr %47, ptr %10, align 8
  %48 = load ptr, ptr %10, align 8
  %49 = getelementptr i8, ptr %48, i32 1
  store ptr %49, ptr %10, align 8
  store i8 46, ptr %48, align 1
  %50 = load ptr, ptr %10, align 8
  %51 = getelementptr inbounds nuw %struct.sna_fid_type_4_addr, ptr %9, i32 0, i32 1
  %52 = load i16, ptr %51, align 4
  %53 = call ptr @word_to_hex(ptr noundef %50, i16 noundef zeroext %52)
  store ptr %53, ptr %10, align 8
  %54 = load ptr, ptr %10, align 8
  %55 = getelementptr i8, ptr %54, i32 1
  store ptr %55, ptr %10, align 8
  store i8 0, ptr %54, align 1
  br label %59

56:                                               ; preds = %3
  %57 = load ptr, ptr %6, align 8
  %58 = getelementptr i8, ptr %57, i64 0
  store i8 0, ptr %58, align 1
  store i32 1, ptr %4, align 4
  store i32 1, ptr %11, align 4
  br label %64

59:                                               ; preds = %39, %28, %16
  %60 = load ptr, ptr %6, align 8
  %61 = call i64 @strlen(ptr noundef %60) #13
  %62 = trunc i64 %61 to i32
  %63 = add i32 %62, 1
  store i32 %63, ptr %4, align 4
  store i32 1, ptr %11, align 4
  br label %64

64:                                               ; preds = %59, %56
  call void @llvm.lifetime.end.p0(i64 8, ptr %10) #12
  call void @llvm.lifetime.end.p0(i64 8, ptr %9) #12
  call void @llvm.lifetime.end.p0(i64 8, ptr %8) #12
  %65 = load i32, ptr %4, align 4
  ret i32 %65
}