; Function Attrs: null_pointer_is_valid sspstrong uwtable
define internal i32 @sna_fid_to_str_buf(ptr noundef readonly captures(none) %0, ptr noundef %1, i32 %2) #0 {
  %4 = getelementptr inbounds nuw i8, ptr %0, i64 4
  %5 = load i32, ptr %4, align 4
  switch i32 %5, label %29 [
    i32 1, label %6
    i32 2, label %13
    i32 6, label %23
  ]

6:                                                ; preds = %3
  %7 = getelementptr inbounds nuw i8, ptr %0, i64 8
  %8 = load ptr, ptr %7, align 8
  %9 = load i8, ptr %8, align 1
  %10 = zext i8 %9 to i16
  %11 = tail call ptr @word_to_hex(ptr noundef %1, i16 noundef zeroext %10)
  %12 = getelementptr i8, ptr %1, i64 4
  store i8 0, ptr %12, align 1
  br label %30

13:                                               ; preds = %3
  %14 = getelementptr inbounds nuw i8, ptr %0, i64 8
  %15 = load ptr, ptr %14, align 8
  %.val = load i8, ptr %15, align 1
  %16 = getelementptr i8, ptr %15, i64 1
  %.val17 = load i8, ptr %16, align 1
  %17 = zext i8 %.val to i16
  %18 = shl nuw i16 %17, 8
  %19 = zext i8 %.val17 to i16
  %20 = or disjoint i16 %18, %19
  %21 = tail call ptr @word_to_hex(ptr noundef %1, i16 noundef zeroext %20)
  %22 = getelementptr i8, ptr %1, i64 4
  store i8 0, ptr %22, align 1
  br label %30

23:                                               ; preds = %3
  %24 = getelementptr inbounds nuw i8, ptr %0, i64 8
  %25 = load ptr, ptr %24, align 8
  %.sroa.0.0.copyload = load i32, ptr %25, align 1
  %.sroa.4.0..sroa_idx = getelementptr inbounds nuw i8, ptr %25, i64 4
  %.sroa.4.0.copyload = load i16, ptr %.sroa.4.0..sroa_idx, align 1
  %26 = tail call ptr @dword_to_hex(ptr noundef %1, i32 noundef %.sroa.0.0.copyload)
  %27 = getelementptr i8, ptr %26, i64 1
  store i8 46, ptr %26, align 1
  %28 = tail call ptr @word_to_hex(ptr noundef %27, i16 noundef zeroext %.sroa.4.0.copyload)
  store i8 0, ptr %28, align 1
  br label %30

29:                                               ; preds = %3
  store i8 0, ptr %1, align 1
  br label %34

30:                                               ; preds = %23, %13, %6
  %31 = tail call i64 @strlen(ptr noundef %1) #6
  %32 = trunc i64 %31 to i32
  %33 = add i32 %32, 1
  br label %34

34:                                               ; preds = %30, %29
  %.0 = phi i32 [ 1, %29 ], [ %33, %30 ]
  ret i32 %.0
}